target datalayout = "e-m:e-p270:32:32-p271:32:32-p272:64:64-i64:64-i128:128-f80:128-n8:16:32:64-S128"
target triple = "x86_64-pc-linux-gnu"

%struct.object_id = type { [32 x i8], i32 }
%struct.object = type { i32, %struct.object_id }
%struct.commit = type { %struct.object, i64, ptr, ptr, i32 }

@write_bitmap_index = internal global i32 0, align 4
@use_delta_islands = internal global i32 0, align 4
@.str.148 = private unnamed_addr constant [27 x i8] c"size_t overflow: %lu * %lu\00", align 1
@indexed_commits_nr = internal global i32 0, align 4
@indexed_commits_alloc = internal global i32 0, align 4
@indexed_commits = internal global ptr null, align 8

; Function Attrs: inlinehint nounwind uwtable
define internal i64 @st_mult(i64 noundef %0, i64 noundef %1) #2 {
  %3 = alloca i64, align 8
  %4 = alloca i64, align 8
  store i64 %0, ptr %3, align 8, !tbaa !13
  store i64 %1, ptr %4, align 8, !tbaa !13
  %5 = load i64, ptr %3, align 8, !tbaa !13
  %6 = icmp ne i64 %5, 0
  br i1 %6, label %7, label %15

7:                                                ; preds = %2
  %8 = load i64, ptr %4, align 8, !tbaa !13
  %9 = load i64, ptr %3, align 8, !tbaa !13
  %10 = udiv i64 -1, %9
  %11 = icmp ugt i64 %8, %10
  br i1 %11, label %12, label %15

12:                                               ; preds = %7
  %13 = load i64, ptr %3, align 8, !tbaa !13
  %14 = load i64, ptr %4, align 8, !tbaa !13
  call void (ptr, ...) @die(ptr noundef @.str.148, i64 noundef %13, i64 noundef %14) #12
  unreachable

15:                                               ; preds = %7, %2
  %16 = load i64, ptr %3, align 8, !tbaa !13
  %17 = load i64, ptr %4, align 8, !tbaa !13
  %18 = mul i64 %16, %17
  ret i64 %18
}

; Function Attrs: nounwind uwtable
define internal void @index_commit_for_bitmap(ptr noundef %0) #0 {
  %2 = alloca ptr, align 8
  store ptr %0, ptr %2, align 8, !tbaa !169
  %3 = load i32, ptr @indexed_commits_nr, align 4, !tbaa !27
  %4 = load i32, ptr @indexed_commits_alloc, align 4, !tbaa !27
  %5 = icmp uge i32 %3, %4
  br i1 %5, label %6, label %15

6:                                                ; preds = %1
  %7 = load i32, ptr @indexed_commits_alloc, align 4, !tbaa !27
  %8 = add i32 %7, 32
  %9 = mul i32 %8, 2
  store i32 %9, ptr @indexed_commits_alloc, align 4, !tbaa !27
  %10 = load ptr, ptr @indexed_commits, align 8, !tbaa !214
  %11 = load i32, ptr @indexed_commits_alloc, align 4, !tbaa !27
  %12 = zext i32 %11 to i64
  %13 = call i64 @st_mult(i64 noundef 8, i64 noundef %12)
  %14 = call ptr @xrealloc(ptr noundef %10, i64 noundef %13)
  store ptr %14, ptr @indexed_commits, align 8, !tbaa !214
  br label %15

15:                                               ; preds = %6, %1
  %16 = load ptr, ptr %2, align 8, !tbaa !169
  %17 = load ptr, ptr @indexed_commits, align 8, !tbaa !214
  %18 = load i32, ptr @indexed_commits_nr, align 4, !tbaa !27
  %19 = add i32 %18, 1
  store i32 %19, ptr @indexed_commits_nr, align 4, !tbaa !27
  %20 = zext i32 %18 to i64
  %21 = getelementptr inbounds nuw ptr, ptr %17, i64 %20
  store ptr %16, ptr %21, align 8, !tbaa !169
  ret void
}

; Function Attrs: nounwind uwtable
define internal void @show_commit(ptr noundef %0, ptr noundef %1) #0 {
  %3 = alloca ptr, align 8
  %4 = alloca ptr, align 8
  store ptr %0, ptr %3, align 8, !tbaa !169
  store ptr %1, ptr %4, align 8, !tbaa !134
  %5 = load ptr, ptr %3, align 8, !tbaa !169
  %6 = getelementptr inbounds nuw %struct.commit, ptr %5, i32 0, i32 0
  %7 = getelementptr inbounds nuw %struct.object, ptr %6, i32 0, i32 1
  %8 = call i32 @add_object_entry(ptr noundef %7, i32 noundef 1, ptr noundef null, i32 noundef 0)
  %9 = load i32, ptr @write_bitmap_index, align 4, !tbaa !27
  %10 = icmp ne i32 %9, 0
  br i1 %10, label %11, label %13

11:                                               ; preds = %2
  %12 = load ptr, ptr %3, align 8, !tbaa !169
  call void @index_commit_for_bitmap(ptr noundef %12)
  br label %13

13:                                               ; preds = %11, %2
  %14 = load i32, ptr @use_delta_islands, align 4, !tbaa !27
  %15 = icmp ne i32 %14, 0
  br i1 %15, label %16, label %18

16:                                               ; preds = %13
  %17 = load ptr, ptr %3, align 8, !tbaa !169
  call void @propagate_island_marks(ptr noundef %17)
  br label %18

18:                                               ; preds = %16, %13
  ret void
}