; Function Attrs: nounwind uwtable
define internal void @show_commit(ptr noundef %0, ptr readnone captures(none) %1) #0 {
  %3 = getelementptr inbounds nuw i8, ptr %0, i64 4
  tail call fastcc void @add_object_entry(ptr noundef nonnull %3, i32 noundef 1, ptr noundef null, i32 noundef 0)
  %4 = load i32, ptr @write_bitmap_index, align 4, !tbaa !30
  %.not = icmp eq i32 %4, 0
  br i1 %.not, label %18, label %5

5:                                                ; preds = %2
  %6 = load i32, ptr @indexed_commits_nr, align 4, !tbaa !30
  %7 = load i32, ptr @indexed_commits_alloc, align 4, !tbaa !30
  %.not.i = icmp ult i32 %6, %7
  %.pre.i = load ptr, ptr @indexed_commits, align 8, !tbaa !265
  br i1 %.not.i, label %index_commit_for_bitmap.exit, label %st_mult.exit.i

st_mult.exit.i:                                   ; preds = %5
  %8 = shl i32 %7, 1
  %9 = add i32 %8, 64
  store i32 %9, ptr @indexed_commits_alloc, align 4, !tbaa !30
  %10 = zext i32 %9 to i64
  %11 = shl nuw nsw i64 %10, 3
  %12 = tail call ptr @xrealloc(ptr noundef %.pre.i, i64 noundef %11) #25
  store ptr %12, ptr @indexed_commits, align 8, !tbaa !265
  %.pre2.i = load i32, ptr @indexed_commits_nr, align 4, !tbaa !30
  br label %index_commit_for_bitmap.exit

index_commit_for_bitmap.exit:                     ; preds = %5, %st_mult.exit.i
  %13 = phi i32 [ %.pre2.i, %st_mult.exit.i ], [ %6, %5 ]
  %14 = phi ptr [ %12, %st_mult.exit.i ], [ %.pre.i, %5 ]
  %15 = add i32 %13, 1
  store i32 %15, ptr @indexed_commits_nr, align 4, !tbaa !30
  %16 = zext i32 %13 to i64
  %17 = getelementptr inbounds nuw ptr, ptr %14, i64 %16
  store ptr %0, ptr %17, align 8, !tbaa !323
  br label %18

18:                                               ; preds = %index_commit_for_bitmap.exit, %2
  %19 = load i32, ptr @use_delta_islands, align 4, !tbaa !30
  %.not3 = icmp eq i32 %19, 0
  br i1 %.not3, label %21, label %20

20:                                               ; preds = %18
  tail call void @propagate_island_marks(ptr noundef nonnull %0) #25
  br label %21

21:                                               ; preds = %20, %18
  ret void
}